; Function Attrs: cold nounwind optsize uwtable
define internal void @uninit(ptr noundef readonly captures(none) %0) #5 {
  %2 = getelementptr inbounds nuw i8, ptr %0, i64 72
  %3 = load ptr, ptr %2, align 8, !tbaa !17
  %4 = getelementptr inbounds nuw i8, ptr %3, i64 80
  tail call void @av_buffer_unref(ptr noundef nonnull %4) #6
  %5 = getelementptr inbounds nuw i8, ptr %3, i64 104
  tail call void @av_channel_layout_uninit(ptr noundef nonnull %5) #6
  %6 = getelementptr inbounds nuw i8, ptr %3, i64 128
  %7 = getelementptr inbounds nuw i8, ptr %3, i64 136
  tail call void @av_frame_side_data_free(ptr noundef nonnull %6, ptr noundef nonnull %7) #6
  ret void
}